target datalayout = "e-m:e-p270:32:32-p271:32:32-p272:64:64-i64:64-i128:128-f80:128-n8:16:32:64-S128"
target triple = "x86_64-pc-linux-gnu"

%struct.MRef = type { i64 }
%struct.GCRef = type { i64 }
%union.TValue = type { i64 }
%struct.GCproto = type { %struct.GCRef, i8, i8, i8, i8, i32, i32, %struct.GCRef, %struct.MRef, %struct.MRef, i32, i32, i32, i8, i8, i16, %struct.GCRef, i32, i32, %struct.MRef, %struct.MRef, %struct.MRef }
%struct.GCfuncC = type { %struct.GCRef, i8, i8, i8, i8, %struct.GCRef, %struct.GCRef, %struct.MRef, ptr, [1 x %union.TValue] }
%struct.GCfuncL = type { %struct.GCRef, i8, i8, i8, i8, %struct.GCRef, %struct.GCRef, %struct.MRef, [1 x %struct.GCRef] }
%struct.GCupval = type { %struct.GCRef, i8, i8, i8, i8, %union.anon, %struct.MRef, i32 }
%union.anon = type { %struct.anon.1 }
%struct.anon.1 = type { %struct.GCRef, %struct.GCRef }

@.str = private unnamed_addr constant [1 x i8] zeroinitializer, align 1

; Function Attrs: nounwind uwtable
define hidden ptr @lj_debug_uvname(ptr noundef %0, i32 noundef %1) #0 {
  %3 = alloca ptr, align 8
  %4 = alloca ptr, align 8
  %5 = alloca i32, align 4
  %6 = alloca ptr, align 8
  %7 = alloca i32, align 4
  store ptr %0, ptr %4, align 8, !tbaa !24
  store i32 %1, ptr %5, align 4, !tbaa !9
  call void @llvm.lifetime.start.p0(i64 8, ptr %6) #8
  %8 = load ptr, ptr %4, align 8, !tbaa !24
  %9 = getelementptr inbounds nuw %struct.GCproto, ptr %8, i32 0, i32 20
  %10 = getelementptr inbounds nuw %struct.MRef, ptr %9, i32 0, i32 0
  %11 = load i64, ptr %10, align 8, !tbaa !34
  %12 = inttoptr i64 %11 to ptr
  store ptr %12, ptr %6, align 8, !tbaa !35
  %13 = load ptr, ptr %6, align 8, !tbaa !35
  %14 = icmp ne ptr %13, null
  br i1 %14, label %16, label %15

15:                                               ; preds = %2
  store ptr @.str, ptr %3, align 8
  store i32 1, ptr %7, align 4
  br label %36

16:                                               ; preds = %2
  %17 = load i32, ptr %5, align 4, !tbaa !9
  %18 = icmp ne i32 %17, 0
  br i1 %18, label %19, label %34

19:                                               ; preds = %16
  br label %20

20:                                               ; preds = %32, %19
  %21 = load ptr, ptr %6, align 8, !tbaa !35
  %22 = getelementptr inbounds nuw i8, ptr %21, i32 1
  store ptr %22, ptr %6, align 8, !tbaa !35
  %23 = load i8, ptr %21, align 1, !tbaa !21
  %24 = zext i8 %23 to i32
  %25 = icmp ne i32 %24, 0
  br i1 %25, label %30, label %26

26:                                               ; preds = %20
  %27 = load i32, ptr %5, align 4, !tbaa !9
  %28 = add i32 %27, -1
  store i32 %28, ptr %5, align 4, !tbaa !9
  %29 = icmp ne i32 %28, 0
  br label %30

30:                                               ; preds = %26, %20
  %31 = phi i1 [ true, %20 ], [ %29, %26 ]
  br i1 %31, label %32, label %33

32:                                               ; preds = %30
  br label %20, !llvm.loop !37

33:                                               ; preds = %30
  br label %34

34:                                               ; preds = %33, %16
  %35 = load ptr, ptr %6, align 8, !tbaa !35
  store ptr %35, ptr %3, align 8
  store i32 1, ptr %7, align 4
  br label %36

36:                                               ; preds = %34, %15
  call void @llvm.lifetime.end.p0(i64 8, ptr %6) #8
  %37 = load ptr, ptr %3, align 8
  ret ptr %37
}

; Function Attrs: nounwind uwtable
define hidden ptr @lj_debug_uvnamev(ptr noundef %0, i32 noundef %1, ptr noundef %2, ptr noundef %3) #0 {
  %5 = alloca ptr, align 8
  %6 = alloca ptr, align 8
  %7 = alloca i32, align 4
  %8 = alloca ptr, align 8
  %9 = alloca ptr, align 8
  %10 = alloca ptr, align 8
  %11 = alloca ptr, align 8
  %12 = alloca ptr, align 8
  %13 = alloca i32, align 4
  store ptr %0, ptr %6, align 8, !tbaa !19
  store i32 %1, ptr %7, align 4, !tbaa !9
  store ptr %2, ptr %8, align 8, !tbaa !38
  store ptr %3, ptr %9, align 8, !tbaa !40
  %14 = load ptr, ptr %6, align 8, !tbaa !19
  %15 = load i64, ptr %14, align 8, !tbaa !21
  %16 = ashr i64 %15, 47
  %17 = trunc i64 %16 to i32
  %18 = icmp eq i32 %17, -9
  br i1 %18, label %19, label %88

19:                                               ; preds = %4
  call void @llvm.lifetime.start.p0(i64 8, ptr %10) #8
  %20 = load ptr, ptr %6, align 8, !tbaa !19
  %21 = getelementptr inbounds nuw %struct.GCRef, ptr %20, i32 0, i32 0
  %22 = load i64, ptr %21, align 8, !tbaa !21
  %23 = and i64 %22, 140737488355327
  %24 = inttoptr i64 %23 to ptr
  store ptr %24, ptr %10, align 8, !tbaa !42
  %25 = load ptr, ptr %10, align 8, !tbaa !42
  %26 = getelementptr inbounds nuw %struct.GCfuncC, ptr %25, i32 0, i32 3
  %27 = load i8, ptr %26, align 2, !tbaa !21
  %28 = zext i8 %27 to i32
  %29 = icmp eq i32 %28, 0
  br i1 %29, label %30, label %67

30:                                               ; preds = %19
  call void @llvm.lifetime.start.p0(i64 8, ptr %11) #8
  %31 = load ptr, ptr %10, align 8, !tbaa !42
  %32 = getelementptr inbounds nuw %struct.GCfuncL, ptr %31, i32 0, i32 7
  %33 = getelementptr inbounds nuw %struct.MRef, ptr %32, i32 0, i32 0
  %34 = load i64, ptr %33, align 8, !tbaa !21
  %35 = inttoptr i64 %34 to ptr
  %36 = getelementptr inbounds i8, ptr %35, i64 -104
  store ptr %36, ptr %11, align 8, !tbaa !24
  %37 = load i32, ptr %7, align 4, !tbaa !9
  %38 = load ptr, ptr %11, align 8, !tbaa !24
  %39 = getelementptr inbounds nuw %struct.GCproto, ptr %38, i32 0, i32 13
  %40 = load i8, ptr %39, align 4, !tbaa !44
  %41 = zext i8 %40 to i32
  %42 = icmp ult i32 %37, %41
  br i1 %42, label %43, label %63

43:                                               ; preds = %30
  call void @llvm.lifetime.start.p0(i64 8, ptr %12) #8
  %44 = load ptr, ptr %10, align 8, !tbaa !42
  %45 = getelementptr inbounds nuw %struct.GCfuncL, ptr %44, i32 0, i32 8
  %46 = load i32, ptr %7, align 4, !tbaa !9
  %47 = zext i32 %46 to i64
  %48 = getelementptr inbounds nuw [1 x %struct.GCRef], ptr %45, i64 0, i64 %47
  %49 = getelementptr inbounds nuw %struct.GCRef, ptr %48, i32 0, i32 0
  %50 = load i64, ptr %49, align 8, !tbaa !21
  %51 = inttoptr i64 %50 to ptr
  store ptr %51, ptr %12, align 8, !tbaa !45
  %52 = load ptr, ptr %12, align 8, !tbaa !45
  %53 = getelementptr inbounds nuw %struct.GCupval, ptr %52, i32 0, i32 6
  %54 = getelementptr inbounds nuw %struct.MRef, ptr %53, i32 0, i32 0
  %55 = load i64, ptr %54, align 8, !tbaa !21
  %56 = inttoptr i64 %55 to ptr
  %57 = load ptr, ptr %8, align 8, !tbaa !38
  store ptr %56, ptr %57, align 8, !tbaa !19
  %58 = load ptr, ptr %12, align 8, !tbaa !45
  %59 = load ptr, ptr %9, align 8, !tbaa !40
  store ptr %58, ptr %59, align 8, !tbaa !45
  %60 = load ptr, ptr %11, align 8, !tbaa !24
  %61 = load i32, ptr %7, align 4, !tbaa !9
  %62 = call ptr @lj_debug_uvname(ptr noundef %60, i32 noundef %61)
  store ptr %62, ptr %5, align 8
  store i32 1, ptr %13, align 4
  call void @llvm.lifetime.end.p0(i64 8, ptr %12) #8
  br label %64

63:                                               ; preds = %30
  store i32 0, ptr %13, align 4
  br label %64

64:                                               ; preds = %63, %43
  call void @llvm.lifetime.end.p0(i64 8, ptr %11) #8
  %65 = load i32, ptr %13, align 4
  switch i32 %65, label %85 [
    i32 0, label %66
  ]

66:                                               ; preds = %64
  br label %84

67:                                               ; preds = %19
  %68 = load i32, ptr %7, align 4, !tbaa !9
  %69 = load ptr, ptr %10, align 8, !tbaa !42
  %70 = getelementptr inbounds nuw %struct.GCfuncC, ptr %69, i32 0, i32 4
  %71 = load i8, ptr %70, align 1, !tbaa !21
  %72 = zext i8 %71 to i32
  %73 = icmp ult i32 %68, %72
  br i1 %73, label %74, label %83

74:                                               ; preds = %67
  %75 = load ptr, ptr %10, align 8, !tbaa !42
  %76 = getelementptr inbounds nuw %struct.GCfuncC, ptr %75, i32 0, i32 9
  %77 = load i32, ptr %7, align 4, !tbaa !9
  %78 = zext i32 %77 to i64
  %79 = getelementptr inbounds nuw [1 x %union.TValue], ptr %76, i64 0, i64 %78
  %80 = load ptr, ptr %8, align 8, !tbaa !38
  store ptr %79, ptr %80, align 8, !tbaa !19
  %81 = load ptr, ptr %10, align 8, !tbaa !42
  %82 = load ptr, ptr %9, align 8, !tbaa !40
  store ptr %81, ptr %82, align 8, !tbaa !45
  store ptr @.str, ptr %5, align 8
  store i32 1, ptr %13, align 4
  br label %85

83:                                               ; preds = %67
  br label %84

84:                                               ; preds = %83, %66
  store i32 0, ptr %13, align 4
  br label %85

85:                                               ; preds = %84, %74, %64
  call void @llvm.lifetime.end.p0(i64 8, ptr %10) #8
  %86 = load i32, ptr %13, align 4
  switch i32 %86, label %91 [
    i32 0, label %87
    i32 1, label %89
  ]

87:                                               ; preds = %85
  br label %88

88:                                               ; preds = %87, %4
  store ptr null, ptr %5, align 8
  br label %89

89:                                               ; preds = %88, %85
  %90 = load ptr, ptr %5, align 8
  ret ptr %90

91:                                               ; preds = %85
  unreachable
}