; Function Attrs: nofree norecurse nosync nounwind memory(read, argmem: readwrite, inaccessiblemem: none) uwtable
define hidden ptr @lj_debug_uvnamev(ptr noundef readonly captures(none) %0, i32 noundef %1, ptr noundef writeonly captures(none) %2, ptr noundef writeonly captures(none) %3) local_unnamed_addr #0 {
  %5 = load i64, ptr %0, align 8, !tbaa !15
  %.mask = and i64 %5, -140737488355328
  %6 = icmp eq i64 %.mask, -1266637395197952
  br i1 %6, label %7, label %lj_debug_uvname.exit.thread

7:                                                ; preds = %4
  %8 = and i64 %5, 140737488355327
  %9 = inttoptr i64 %8 to ptr
  %10 = getelementptr inbounds nuw i8, ptr %9, i64 10
  %11 = load i8, ptr %10, align 2, !tbaa !15
  %12 = icmp eq i8 %11, 0
  br i1 %12, label %13, label %37

13:                                               ; preds = %7
  %14 = getelementptr inbounds nuw i8, ptr %9, i64 32
  %15 = load i64, ptr %14, align 8, !tbaa !15
  %16 = inttoptr i64 %15 to ptr
  %17 = getelementptr inbounds i8, ptr %16, i64 -44
  %18 = load i8, ptr %17, align 4, !tbaa !28
  %19 = zext i8 %18 to i32
  %.not = icmp ult i32 %1, %19
  br i1 %.not, label %20, label %lj_debug_uvname.exit.thread

20:                                               ; preds = %13
  %21 = getelementptr inbounds nuw i8, ptr %9, i64 40
  %22 = zext nneg i32 %1 to i64
  %23 = getelementptr inbounds nuw [1 x %struct.GCRef], ptr %21, i64 0, i64 %22
  %24 = load i64, ptr %23, align 8, !tbaa !15
  %25 = inttoptr i64 %24 to ptr
  %26 = getelementptr inbounds nuw i8, ptr %25, i64 32
  %27 = load i64, ptr %26, align 8, !tbaa !15
  %28 = inttoptr i64 %27 to ptr
  store ptr %28, ptr %2, align 8, !tbaa !29
  store ptr %25, ptr %3, align 8, !tbaa !30
  %29 = getelementptr inbounds i8, ptr %16, i64 -16
  %30 = load i64, ptr %29, align 8, !tbaa !26
  %.not.i = icmp eq i64 %30, 0
  br i1 %.not.i, label %lj_debug_uvname.exit.thread, label %31

31:                                               ; preds = %20
  %32 = inttoptr i64 %30 to ptr
  %.not12.i = icmp eq i32 %1, 0
  br i1 %.not12.i, label %lj_debug_uvname.exit.thread, label %.preheader.i.outer

.preheader.i.outer:                               ; preds = %31, %35
  %.06.i.ph = phi i32 [ %36, %35 ], [ %1, %31 ]
  %.1.i.ph = phi ptr [ %33, %35 ], [ %32, %31 ]
  br label %.preheader.i

.preheader.i:                                     ; preds = %.preheader.i.outer, %.preheader.i
  %.1.i = phi ptr [ %33, %.preheader.i ], [ %.1.i.ph, %.preheader.i.outer ]
  %33 = getelementptr inbounds nuw i8, ptr %.1.i, i64 1
  %34 = load i8, ptr %.1.i, align 1, !tbaa !15
  %.not13.i = icmp eq i8 %34, 0
  br i1 %.not13.i, label %35, label %.preheader.i, !llvm.loop !27

35:                                               ; preds = %.preheader.i
  %36 = add i32 %.06.i.ph, -1
  %.not14.i = icmp eq i32 %36, 0
  br i1 %.not14.i, label %lj_debug_uvname.exit.thread, label %.preheader.i.outer, !llvm.loop !27

37:                                               ; preds = %7
  %38 = getelementptr inbounds nuw i8, ptr %9, i64 11
  %39 = load i8, ptr %38, align 1, !tbaa !15
  %40 = zext i8 %39 to i32
  %41 = icmp ult i32 %1, %40
  br i1 %41, label %42, label %lj_debug_uvname.exit.thread

42:                                               ; preds = %37
  %43 = getelementptr inbounds nuw i8, ptr %9, i64 48
  %44 = zext nneg i32 %1 to i64
  %45 = getelementptr inbounds nuw [1 x %union.TValue], ptr %43, i64 0, i64 %44
  store ptr %45, ptr %2, align 8, !tbaa !29
  store ptr %9, ptr %3, align 8, !tbaa !30
  br label %lj_debug_uvname.exit.thread

lj_debug_uvname.exit.thread:                      ; preds = %35, %4, %37, %13, %20, %31, %42
  %.3 = phi ptr [ %32, %31 ], [ @.str, %20 ], [ @.str, %42 ], [ null, %13 ], [ null, %37 ], [ null, %4 ], [ %33, %35 ]
  ret ptr %.3
}